; ModuleID = '8/584.c'
source_filename = "8/584.c"
target datalayout = "e-m:e-p270:32:32-p271:32:32-p272:64:64-i64:64-f80:128-n8:16:32:64-S128"
target triple = "x86_64-pc-linux-gnu"

@.str = private unnamed_addr constant [5 x i8] c"%d%d\00", align 1
@.str.1 = private unnamed_addr constant [3 x i8] c"%d\00", align 1
@.str.2 = private unnamed_addr constant [4 x i8] c"%d \00", align 1

; Function Attrs: noinline nounwind uwtable
define dso_local void @main() #0 {
  %1 = alloca i32, align 4
  %2 = alloca i32, align 4
  %3 = call i32 (i8*, ...) @__isoc99_scanf(i8* getelementptr inbounds ([5 x i8], [5 x i8]* @.str, i64 0, i64 0), i32* %1, i32* %2)
  %4 = load i32, i32* %1, align 4
  %5 = load i32, i32* %2, align 4
  call void @func(i32 %4, i32 %5)
  ret void
}

declare dso_local i32 @__isoc99_scanf(i8*, ...) #1

; Function Attrs: noinline nounwind uwtable
define dso_local void @func(i32 %0, i32 %1) #0 {
  %3 = alloca i32, align 4
  %4 = alloca i32, align 4
  %5 = alloca i32, align 4
  %6 = alloca i32, align 4
  %7 = alloca i32, align 4
  %8 = alloca i32, align 4
  %9 = alloca [100 x i32], align 16
  %10 = alloca [100 x i32], align 16
  store i32 %0, i32* %3, align 4
  store i32 %1, i32* %4, align 4
  store i32 0, i32* %5, align 4
  br label %11

11:                                               ; preds = %20, %2
  %12 = load i32, i32* %5, align 4
  %13 = load i32, i32* %3, align 4
  %14 = icmp slt i32 %12, %13
  br i1 %14, label %15, label %23

15:                                               ; preds = %11
  %16 = load i32, i32* %5, align 4
  %17 = sext i32 %16 to i64
  %18 = getelementptr inbounds [100 x i32], [100 x i32]* %9, i64 0, i64 %17
  %19 = call i32 (i8*, ...) @__isoc99_scanf(i8* getelementptr inbounds ([3 x i8], [3 x i8]* @.str.1, i64 0, i64 0), i32* %18)
  br label %20

20:                                               ; preds = %15
  %21 = load i32, i32* %5, align 4
  %22 = add nsw i32 %21, 1
  store i32 %22, i32* %5, align 4
  br label %11

23:                                               ; preds = %11
  store i32 0, i32* %5, align 4
  br label %24

24:                                               ; preds = %33, %23
  %25 = load i32, i32* %5, align 4
  %26 = load i32, i32* %4, align 4
  %27 = icmp slt i32 %25, %26
  br i1 %27, label %28, label %36

28:                                               ; preds = %24
  %29 = load i32, i32* %5, align 4
  %30 = sext i32 %29 to i64
  %31 = getelementptr inbounds [100 x i32], [100 x i32]* %10, i64 0, i64 %30
  %32 = call i32 (i8*, ...) @__isoc99_scanf(i8* getelementptr inbounds ([3 x i8], [3 x i8]* @.str.1, i64 0, i64 0), i32* %31)
  br label %33

33:                                               ; preds = %28
  %34 = load i32, i32* %5, align 4
  %35 = add nsw i32 %34, 1
  store i32 %35, i32* %5, align 4
  br label %24

36:                                               ; preds = %24
  store i32 1, i32* %5, align 4
  br label %37

37:                                               ; preds = %82, %36
  %38 = load i32, i32* %5, align 4
  %39 = load i32, i32* %3, align 4
  %40 = icmp slt i32 %38, %39
  br i1 %40, label %41, label %85

41:                                               ; preds = %37
  store i32 0, i32* %6, align 4
  br label %42

42:                                               ; preds = %78, %41
  %43 = load i32, i32* %6, align 4
  %44 = load i32, i32* %3, align 4
  %45 = load i32, i32* %5, align 4
  %46 = sub nsw i32 %44, %45
  %47 = icmp slt i32 %43, %46
  br i1 %47, label %48, label %81

48:                                               ; preds = %42
  %49 = load i32, i32* %6, align 4
  %50 = sext i32 %49 to i64
  %51 = getelementptr inbounds [100 x i32], [100 x i32]* %9, i64 0, i64 %50
  %52 = load i32, i32* %51, align 4
  %53 = load i32, i32* %6, align 4
  %54 = add nsw i32 %53, 1
  %55 = sext i32 %54 to i64
  %56 = getelementptr inbounds [100 x i32], [100 x i32]* %9, i64 0, i64 %55
  %57 = load i32, i32* %56, align 4
  %58 = icmp sgt i32 %52, %57
  br i1 %58, label %59, label %77

59:                                               ; preds = %48
  %60 = load i32, i32* %6, align 4
  %61 = sext i32 %60 to i64
  %62 = getelementptr inbounds [100 x i32], [100 x i32]* %9, i64 0, i64 %61
  %63 = load i32, i32* %62, align 4
  store i32 %63, i32* %7, align 4
  %64 = load i32, i32* %6, align 4
  %65 = add nsw i32 %64, 1
  %66 = sext i32 %65 to i64
  %67 = getelementptr inbounds [100 x i32], [100 x i32]* %9, i64 0, i64 %66
  %68 = load i32, i32* %67, align 4
  %69 = load i32, i32* %6, align 4
  %70 = sext i32 %69 to i64
  %71 = getelementptr inbounds [100 x i32], [100 x i32]* %9, i64 0, i64 %70
  store i32 %68, i32* %71, align 4
  %72 = load i32, i32* %7, align 4
  %73 = load i32, i32* %6, align 4
  %74 = add nsw i32 %73, 1
  %75 = sext i32 %74 to i64
  %76 = getelementptr inbounds [100 x i32], [100 x i32]* %9, i64 0, i64 %75
  store i32 %72, i32* %76, align 4
  br label %77

77:                                               ; preds = %59, %48
  br label %78

78:                                               ; preds = %77
  %79 = load i32, i32* %6, align 4
  %80 = add nsw i32 %79, 1
  store i32 %80, i32* %6, align 4
  br label %42

81:                                               ; preds = %42
  br label %82

82:                                               ; preds = %81
  %83 = load i32, i32* %5, align 4
  %84 = add nsw i32 %83, 1
  store i32 %84, i32* %5, align 4
  br label %37

85:                                               ; preds = %37
  store i32 1, i32* %5, align 4
  br label %86

86:                                               ; preds = %131, %85
  %87 = load i32, i32* %5, align 4
  %88 = load i32, i32* %4, align 4
  %89 = icmp slt i32 %87, %88
  br i1 %89, label %90, label %134

90:                                               ; preds = %86
  store i32 0, i32* %6, align 4
  br label %91

91:                                               ; preds = %127, %90
  %92 = load i32, i32* %6, align 4
  %93 = load i32, i32* %4, align 4
  %94 = load i32, i32* %5, align 4
  %95 = sub nsw i32 %93, %94
  %96 = icmp slt i32 %92, %95
  br i1 %96, label %97, label %130

97:                                               ; preds = %91
  %98 = load i32, i32* %6, align 4
  %99 = sext i32 %98 to i64
  %100 = getelementptr inbounds [100 x i32], [100 x i32]* %10, i64 0, i64 %99
  %101 = load i32, i32* %100, align 4
  %102 = load i32, i32* %6, align 4
  %103 = add nsw i32 %102, 1
  %104 = sext i32 %103 to i64
  %105 = getelementptr inbounds [100 x i32], [100 x i32]* %10, i64 0, i64 %104
  %106 = load i32, i32* %105, align 4
  %107 = icmp sgt i32 %101, %106
  br i1 %107, label %108, label %126

108:                                              ; preds = %97
  %109 = load i32, i32* %6, align 4
  %110 = sext i32 %109 to i64
  %111 = getelementptr inbounds [100 x i32], [100 x i32]* %10, i64 0, i64 %110
  %112 = load i32, i32* %111, align 4
  store i32 %112, i32* %7, align 4
  %113 = load i32, i32* %6, align 4
  %114 = add nsw i32 %113, 1
  %115 = sext i32 %114 to i64
  %116 = getelementptr inbounds [100 x i32], [100 x i32]* %10, i64 0, i64 %115
  %117 = load i32, i32* %116, align 4
  %118 = load i32, i32* %6, align 4
  %119 = sext i32 %118 to i64
  %120 = getelementptr inbounds [100 x i32], [100 x i32]* %10, i64 0, i64 %119
  store i32 %117, i32* %120, align 4
  %121 = load i32, i32* %7, align 4
  %122 = load i32, i32* %6, align 4
  %123 = add nsw i32 %122, 1
  %124 = sext i32 %123 to i64
  %125 = getelementptr inbounds [100 x i32], [100 x i32]* %10, i64 0, i64 %124
  store i32 %121, i32* %125, align 4
  br label %126

126:                                              ; preds = %108, %97
  br label %127

127:                                              ; preds = %126
  %128 = load i32, i32* %6, align 4
  %129 = add nsw i32 %128, 1
  store i32 %129, i32* %6, align 4
  br label %91

130:                                              ; preds = %91
  br label %131

131:                                              ; preds = %130
  %132 = load i32, i32* %5, align 4
  %133 = add nsw i32 %132, 1
  store i32 %133, i32* %5, align 4
  br label %86

134:                                              ; preds = %86
  store i32 0, i32* %5, align 4
  br label %135

135:                                              ; preds = %145, %134
  %136 = load i32, i32* %5, align 4
  %137 = load i32, i32* %3, align 4
  %138 = icmp slt i32 %136, %137
  br i1 %138, label %139, label %148

139:                                              ; preds = %135
  %140 = load i32, i32* %5, align 4
  %141 = sext i32 %140 to i64
  %142 = getelementptr inbounds [100 x i32], [100 x i32]* %9, i64 0, i64 %141
  %143 = load i32, i32* %142, align 4
  %144 = call i32 (i8*, ...) @printf(i8* getelementptr inbounds ([4 x i8], [4 x i8]* @.str.2, i64 0, i64 0), i32 %143)
  br label %145

145:                                              ; preds = %139
  %146 = load i32, i32* %5, align 4
  %147 = add nsw i32 %146, 1
  store i32 %147, i32* %5, align 4
  br label %135

148:                                              ; preds = %135
  store i32 0, i32* %5, align 4
  store i32 0, i32* %8, align 4
  br label %149

149:                                              ; preds = %173, %148
  %150 = load i32, i32* %5, align 4
  %151 = load i32, i32* %4, align 4
  %152 = icmp slt i32 %150, %151
  br i1 %152, label %153, label %176

153:                                              ; preds = %149
  %154 = load i32, i32* %8, align 4
  %155 = load i32, i32* %4, align 4
  %156 = sub nsw i32 %155, 1
  %157 = icmp slt i32 %154, %156
  br i1 %157, label %158, label %166

158:                                              ; preds = %153
  %159 = load i32, i32* %5, align 4
  %160 = sext i32 %159 to i64
  %161 = getelementptr inbounds [100 x i32], [100 x i32]* %10, i64 0, i64 %160
  %162 = load i32, i32* %161, align 4
  %163 = call i32 (i8*, ...) @printf(i8* getelementptr inbounds ([4 x i8], [4 x i8]* @.str.2, i64 0, i64 0), i32 %162)
  %164 = load i32, i32* %8, align 4
  %165 = add nsw i32 %164, 1
  store i32 %165, i32* %8, align 4
  br label %172

166:                                              ; preds = %153
  %167 = load i32, i32* %5, align 4
  %168 = sext i32 %167 to i64
  %169 = getelementptr inbounds [100 x i32], [100 x i32]* %10, i64 0, i64 %168
  %170 = load i32, i32* %169, align 4
  %171 = call i32 (i8*, ...) @printf(i8* getelementptr inbounds ([3 x i8], [3 x i8]* @.str.1, i64 0, i64 0), i32 %170)
  br label %172

172:                                              ; preds = %166, %158
  br label %173

173:                                              ; preds = %172
  %174 = load i32, i32* %5, align 4
  %175 = add nsw i32 %174, 1
  store i32 %175, i32* %5, align 4
  br label %149

176:                                              ; preds = %149
  ret void
}

declare dso_local i32 @printf(i8*, ...) #1


!llvm.module.flags = !{!0}
!llvm.ident = !{!1}

!0 = !{i32 1, !"wchar_size", i32 4}
!1 = !{!"clang version 10.0.0-4ubuntu1 "}
